; Function Attrs: mustprogress nofree norecurse nosync nounwind willreturn memory(write, argmem: readwrite, inaccessiblemem: none) uwtable
define dso_local void @_Z19lua_setuserdatadtorP9lua_StateiPFvS0_PvE(ptr noundef readonly captures(none) %0, i32 noundef %1, ptr noundef %2) local_unnamed_addr #10 {
  %4 = getelementptr inbounds nuw i8, ptr %0, i64 24
  %5 = load ptr, ptr %4, align 8, !tbaa !30
  %6 = getelementptr inbounds nuw i8, ptr %5, i64 3424
  %7 = sext i32 %1 to i64
  %8 = getelementptr inbounds [128 x ptr], ptr %6, i64 0, i64 %7
  store ptr %2, ptr %8, align 8, !tbaa !111
  ret void
}